; Function Attrs: nounwind uwtable
define ptr @l_Lean_Meta_Grind_Arith_Cutsat_processVar___lambda__3___boxed(ptr noundef readonly captures(none) %0) #1 {
  %2 = load ptr, ptr %0, align 8, !tbaa !11
  %3 = getelementptr inbounds nuw i8, ptr %0, i64 8
  %4 = load ptr, ptr %3, align 8, !tbaa !11
  %5 = getelementptr inbounds nuw i8, ptr %0, i64 16
  %6 = load ptr, ptr %5, align 8, !tbaa !11
  %7 = getelementptr inbounds nuw i8, ptr %0, i64 24
  %8 = load ptr, ptr %7, align 8, !tbaa !11
  %9 = getelementptr inbounds nuw i8, ptr %0, i64 32
  %10 = load ptr, ptr %9, align 8, !tbaa !11
  %11 = getelementptr inbounds nuw i8, ptr %0, i64 40
  %12 = load ptr, ptr %11, align 8, !tbaa !11
  %13 = getelementptr inbounds nuw i8, ptr %0, i64 48
  %14 = load ptr, ptr %13, align 8, !tbaa !11
  %15 = getelementptr inbounds nuw i8, ptr %0, i64 56
  %16 = load ptr, ptr %15, align 8, !tbaa !11
  %17 = getelementptr inbounds nuw i8, ptr %0, i64 64
  %18 = load ptr, ptr %17, align 8, !tbaa !11
  %19 = getelementptr inbounds nuw i8, ptr %0, i64 72
  %20 = load ptr, ptr %19, align 8, !tbaa !11
  %21 = getelementptr inbounds nuw i8, ptr %0, i64 80
  %22 = load ptr, ptr %21, align 8, !tbaa !11
  %23 = getelementptr inbounds nuw i8, ptr %0, i64 88
  %24 = load ptr, ptr %23, align 8, !tbaa !11
  %25 = getelementptr inbounds nuw i8, ptr %0, i64 96
  %26 = load ptr, ptr %25, align 8, !tbaa !11
  %27 = getelementptr inbounds nuw i8, ptr %0, i64 104
  %28 = load ptr, ptr %27, align 8, !tbaa !11
  %29 = getelementptr inbounds nuw i8, ptr %0, i64 112
  %30 = load ptr, ptr %29, align 8, !tbaa !11
  %31 = getelementptr inbounds nuw i8, ptr %0, i64 120
  %32 = load ptr, ptr %31, align 8, !tbaa !11
  %33 = getelementptr inbounds nuw i8, ptr %0, i64 128
  %34 = load ptr, ptr %33, align 8, !tbaa !11
  %35 = getelementptr inbounds nuw i8, ptr %0, i64 136
  %36 = load ptr, ptr %35, align 8, !tbaa !11
  %37 = getelementptr inbounds nuw i8, ptr %0, i64 144
  %38 = load ptr, ptr %37, align 8, !tbaa !11
  %39 = getelementptr inbounds nuw i8, ptr %0, i64 152
  %40 = load ptr, ptr %39, align 8, !tbaa !11
  %41 = ptrtoint ptr %20 to i64
  %42 = lshr i64 %41, 1
  %43 = trunc i64 %42 to i8
  %44 = and i64 %41, 1
  %.not = icmp eq i64 %44, 0
  br i1 %.not, label %45, label %lean_dec.exit49

45:                                               ; preds = %1
  %46 = load i32, ptr %20, align 4, !tbaa !6
  %47 = icmp sgt i32 %46, 1
  br i1 %47, label %48, label %50, !prof !5

48:                                               ; preds = %45
  %49 = add nsw i32 %46, -1
  store i32 %49, ptr %20, align 4, !tbaa !6
  br label %lean_dec.exit49

50:                                               ; preds = %45
  %.not.i = icmp eq i32 %46, 0
  br i1 %.not.i, label %lean_dec.exit49, label %51

51:                                               ; preds = %50
  tail call void @lean_dec_ref_cold(ptr noundef nonnull %20) #6
  br label %lean_dec.exit49

lean_dec.exit49:                                  ; preds = %51, %50, %48, %1
  %52 = tail call ptr @l_Lean_Meta_Grind_Arith_Cutsat_processVar___lambda__3(ptr noundef %2, ptr noundef %4, ptr noundef %6, ptr noundef %8, ptr noundef %10, ptr noundef %12, ptr noundef %14, ptr noundef %16, ptr poison, i8 noundef zeroext %43, ptr noundef %22, ptr noundef %24, ptr noundef %26, ptr noundef %28, ptr noundef %30, ptr noundef %32, ptr noundef %34, ptr noundef %36, ptr noundef %38, ptr noundef %40)
  %53 = ptrtoint ptr %18 to i64
  %54 = and i64 %53, 1
  %.not58 = icmp eq i64 %54, 0
  br i1 %.not58, label %55, label %lean_dec.exit48

55:                                               ; preds = %lean_dec.exit49
  %56 = load i32, ptr %18, align 4, !tbaa !6
  %57 = icmp sgt i32 %56, 1
  br i1 %57, label %58, label %60, !prof !5

58:                                               ; preds = %55
  %59 = add nsw i32 %56, -1
  store i32 %59, ptr %18, align 4, !tbaa !6
  br label %lean_dec.exit48

60:                                               ; preds = %55
  %.not.i50 = icmp eq i32 %56, 0
  br i1 %.not.i50, label %lean_dec.exit48, label %61

61:                                               ; preds = %60
  tail call void @lean_dec_ref_cold(ptr noundef nonnull %18) #6
  br label %lean_dec.exit48

lean_dec.exit48:                                  ; preds = %61, %60, %58, %lean_dec.exit49
  %62 = ptrtoint ptr %16 to i64
  %63 = and i64 %62, 1
  %.not59 = icmp eq i64 %63, 0
  br i1 %.not59, label %64, label %lean_dec.exit47

64:                                               ; preds = %lean_dec.exit48
  %65 = load i32, ptr %16, align 4, !tbaa !6
  %66 = icmp sgt i32 %65, 1
  br i1 %66, label %67, label %69, !prof !5

67:                                               ; preds = %64
  %68 = add nsw i32 %65, -1
  store i32 %68, ptr %16, align 4, !tbaa !6
  br label %lean_dec.exit47

69:                                               ; preds = %64
  %.not.i52 = icmp eq i32 %65, 0
  br i1 %.not.i52, label %lean_dec.exit47, label %70

70:                                               ; preds = %69
  tail call void @lean_dec_ref_cold(ptr noundef nonnull %16) #6
  br label %lean_dec.exit47

lean_dec.exit47:                                  ; preds = %70, %69, %67, %lean_dec.exit48
  %71 = ptrtoint ptr %8 to i64
  %72 = and i64 %71, 1
  %.not60 = icmp eq i64 %72, 0
  br i1 %.not60, label %73, label %lean_dec.exit46

73:                                               ; preds = %lean_dec.exit47
  %74 = load i32, ptr %8, align 4, !tbaa !6
  %75 = icmp sgt i32 %74, 1
  br i1 %75, label %76, label %78, !prof !5

76:                                               ; preds = %73
  %77 = add nsw i32 %74, -1
  store i32 %77, ptr %8, align 4, !tbaa !6
  br label %lean_dec.exit46

78:                                               ; preds = %73
  %.not.i54 = icmp eq i32 %74, 0
  br i1 %.not.i54, label %lean_dec.exit46, label %79

79:                                               ; preds = %78
  tail call void @lean_dec_ref_cold(ptr noundef nonnull %8) #6
  br label %lean_dec.exit46

lean_dec.exit46:                                  ; preds = %79, %78, %76, %lean_dec.exit47
  %80 = ptrtoint ptr %6 to i64
  %81 = and i64 %80, 1
  %.not61 = icmp eq i64 %81, 0
  br i1 %.not61, label %82, label %lean_dec.exit

82:                                               ; preds = %lean_dec.exit46
  %83 = load i32, ptr %6, align 4, !tbaa !6
  %84 = icmp sgt i32 %83, 1
  br i1 %84, label %85, label %87, !prof !5

85:                                               ; preds = %82
  %86 = add nsw i32 %83, -1
  store i32 %86, ptr %6, align 4, !tbaa !6
  br label %lean_dec.exit

87:                                               ; preds = %82
  %.not.i56 = icmp eq i32 %83, 0
  br i1 %.not.i56, label %lean_dec.exit, label %88

88:                                               ; preds = %87
  tail call void @lean_dec_ref_cold(ptr noundef nonnull %6) #6
  br label %lean_dec.exit

lean_dec.exit:                                    ; preds = %88, %87, %85, %lean_dec.exit46
  ret ptr %52
}